target datalayout = "e-m:e-p270:32:32-p271:32:32-p272:64:64-i64:64-i128:128-f80:128-n8:16:32:64-S128"
target triple = "x86_64-unknown-linux-gnu"

%struct.CryptoDevBackendClass = type { %struct.ObjectClass, ptr, ptr, ptr, ptr, ptr }
%struct.ObjectClass = type { ptr, ptr, [4 x ptr], [4 x ptr], ptr, ptr }

@.str.1 = private unnamed_addr constant [18 x i8] c"cryptodev-backend\00", align 1
@.str.2 = private unnamed_addr constant [105 x i8] c"/home/dtcxzyw/WorkSpace/Projects/compilers/llvm-opt-benchmark/bench/qemu/qemu/include/sysemu/cryptodev.h\00", align 1
@__func__.CRYPTODEV_BACKEND_CLASS = private unnamed_addr constant [24 x i8] c"CRYPTODEV_BACKEND_CLASS\00", align 1

; Function Attrs: nounwind sspstrong uwtable
define internal ptr @CRYPTODEV_BACKEND_CLASS(ptr noundef %klass) #0 {
entry:
  %klass.addr = alloca ptr, align 8
  store ptr %klass, ptr %klass.addr, align 8
  %0 = load ptr, ptr %klass.addr, align 8
  %call = call ptr @object_class_dynamic_cast_assert(ptr noundef %0, ptr noundef @.str.1, ptr noundef @.str.2, i32 noundef 43, ptr noundef @__func__.CRYPTODEV_BACKEND_CLASS)
  ret ptr %call
}

; Function Attrs: nounwind sspstrong uwtable
define internal void @cryptodev_builtin_class_init(ptr noundef %oc, ptr noundef %data) #0 {
entry:
  %oc.addr = alloca ptr, align 8
  %data.addr = alloca ptr, align 8
  %bc = alloca ptr, align 8
  store ptr %oc, ptr %oc.addr, align 8
  store ptr %data, ptr %data.addr, align 8
  %0 = load ptr, ptr %oc.addr, align 8
  %call = call ptr @CRYPTODEV_BACKEND_CLASS(ptr noundef %0)
  store ptr %call, ptr %bc, align 8
  %1 = load ptr, ptr %bc, align 8
  %init = getelementptr inbounds %struct.CryptoDevBackendClass, ptr %1, i32 0, i32 1
  store ptr @cryptodev_builtin_init, ptr %init, align 8
  %2 = load ptr, ptr %bc, align 8
  %cleanup = getelementptr inbounds %struct.CryptoDevBackendClass, ptr %2, i32 0, i32 2
  store ptr @cryptodev_builtin_cleanup, ptr %cleanup, align 8
  %3 = load ptr, ptr %bc, align 8
  %create_session = getelementptr inbounds %struct.CryptoDevBackendClass, ptr %3, i32 0, i32 3
  store ptr @cryptodev_builtin_create_session, ptr %create_session, align 8
  %4 = load ptr, ptr %bc, align 8
  %close_session = getelementptr inbounds %struct.CryptoDevBackendClass, ptr %4, i32 0, i32 4
  store ptr @cryptodev_builtin_close_session, ptr %close_session, align 8
  %5 = load ptr, ptr %bc, align 8
  %do_op = getelementptr inbounds %struct.CryptoDevBackendClass, ptr %5, i32 0, i32 5
  store ptr @cryptodev_builtin_operation, ptr %do_op, align 8
  ret void
}