; Function Attrs: nounwind sspstrong uwtable
define internal void @cryptodev_builtin_class_init(ptr noundef %oc, ptr readnone captures(none) %data) #0 {
entry:
  %call.i = tail call ptr @object_class_dynamic_cast_assert(ptr noundef %oc, ptr noundef nonnull @.str.1, ptr noundef nonnull @.str.2, i32 noundef 43, ptr noundef nonnull @__func__.CRYPTODEV_BACKEND_CLASS) #6
  %init = getelementptr inbounds nuw i8, ptr %call.i, i64 96
  store ptr @cryptodev_builtin_init, ptr %init, align 8
  %cleanup = getelementptr inbounds nuw i8, ptr %call.i, i64 104
  store ptr @cryptodev_builtin_cleanup, ptr %cleanup, align 8
  %create_session = getelementptr inbounds nuw i8, ptr %call.i, i64 112
  store ptr @cryptodev_builtin_create_session, ptr %create_session, align 8
  %close_session = getelementptr inbounds nuw i8, ptr %call.i, i64 120
  store ptr @cryptodev_builtin_close_session, ptr %close_session, align 8
  %do_op = getelementptr inbounds nuw i8, ptr %call.i, i64 128
  store ptr @cryptodev_builtin_operation, ptr %do_op, align 8
  ret void
}